; Function Attrs: inlinehint mustprogress nounwind uwtable
define internal void @_ZN5folly7futures12_GLOBAL__N_112FutureWaiterISt10shared_ptrINS_6fibers5BatonEEED0Ev(ptr noundef nonnull align 8 dereferenceable(40) initializes((0, 8)) %0) unnamed_addr #13 align 2 personality ptr @__gxx_personality_v0 {
  store ptr getelementptr inbounds nuw inrange(-16, 24) (i8, ptr @_ZTVN5folly7futures12_GLOBAL__N_112FutureWaiterISt10shared_ptrINS_6fibers5BatonEEEE, i64 16), ptr %0, align 8, !tbaa !29
  %2 = getelementptr inbounds nuw i8, ptr %0, i64 32
  %3 = load ptr, ptr %2, align 8, !tbaa !16
  %.not.i.i.i = icmp eq ptr %3, null
  br i1 %.not.i.i.i, label %_ZNSt12__shared_ptrIN5folly6fibers5BatonELN9__gnu_cxx12_Lock_policyE2EED2Ev.exit.i, label %4

4:                                                ; preds = %1
  %5 = getelementptr inbounds nuw i8, ptr %3, i64 8
  %6 = load atomic i64, ptr %5 acquire, align 8
  %7 = icmp eq i64 %6, 4294967297
  %8 = trunc i64 %6 to i32
  br i1 %7, label %9, label %17

9:                                                ; preds = %4
  store i32 0, ptr %5, align 8, !tbaa !25
  %10 = getelementptr inbounds nuw i8, ptr %3, i64 12
  store i32 0, ptr %10, align 4, !tbaa !28
  %11 = load ptr, ptr %3, align 8, !tbaa !29
  %12 = getelementptr inbounds nuw i8, ptr %11, i64 16
  %13 = load ptr, ptr %12, align 8
  tail call void %13(ptr noundef nonnull align 8 dereferenceable(16) %3) #23
  %14 = load ptr, ptr %3, align 8, !tbaa !29
  %15 = getelementptr inbounds nuw i8, ptr %14, i64 24
  %16 = load ptr, ptr %15, align 8
  tail call void %16(ptr noundef nonnull align 8 dereferenceable(16) %3) #23
  br label %_ZNSt12__shared_ptrIN5folly6fibers5BatonELN9__gnu_cxx12_Lock_policyE2EED2Ev.exit.i

17:                                               ; preds = %4
  %18 = load i8, ptr @__libc_single_threaded, align 1, !tbaa !31
  %.not.i.i.i.i = icmp eq i8 %18, 0
  br i1 %.not.i.i.i.i, label %21, label %19

19:                                               ; preds = %17
  %20 = add nsw i32 %8, -1
  store i32 %20, ptr %5, align 4, !tbaa !32
  br label %_ZN9__gnu_cxx27__exchange_and_add_dispatchEPii.exit.i.i.i.i

21:                                               ; preds = %17
  %22 = atomicrmw volatile add ptr %5, i32 -1 acq_rel, align 4
  br label %_ZN9__gnu_cxx27__exchange_and_add_dispatchEPii.exit.i.i.i.i

_ZN9__gnu_cxx27__exchange_and_add_dispatchEPii.exit.i.i.i.i: ; preds = %21, %19
  %.0.i.i.i.i.i = phi i32 [ %8, %19 ], [ %22, %21 ]
  %23 = icmp eq i32 %.0.i.i.i.i.i, 1
  br i1 %23, label %24, label %_ZNSt12__shared_ptrIN5folly6fibers5BatonELN9__gnu_cxx12_Lock_policyE2EED2Ev.exit.i, !prof !33

24:                                               ; preds = %_ZN9__gnu_cxx27__exchange_and_add_dispatchEPii.exit.i.i.i.i
  tail call void @_ZNSt16_Sp_counted_baseILN9__gnu_cxx12_Lock_policyE2EE24_M_release_last_use_coldEv(ptr noundef nonnull align 8 dereferenceable(16) %3) #23
  br label %_ZNSt12__shared_ptrIN5folly6fibers5BatonELN9__gnu_cxx12_Lock_policyE2EED2Ev.exit.i

_ZNSt12__shared_ptrIN5folly6fibers5BatonELN9__gnu_cxx12_Lock_policyE2EED2Ev.exit.i: ; preds = %24, %_ZN9__gnu_cxx27__exchange_and_add_dispatchEPii.exit.i.i.i.i, %9, %1
  %25 = getelementptr inbounds nuw i8, ptr %0, i64 16
  %26 = load ptr, ptr %25, align 8, !tbaa !125
  %.not.i.i1.i = icmp eq ptr %26, null
  br i1 %.not.i.i1.i, label %_ZN5folly7futures12_GLOBAL__N_112FutureWaiterISt10shared_ptrINS_6fibers5BatonEEED2Ev.exit, label %27

27:                                               ; preds = %_ZNSt12__shared_ptrIN5folly6fibers5BatonELN9__gnu_cxx12_Lock_policyE2EED2Ev.exit.i
  %28 = getelementptr inbounds nuw i8, ptr %0, i64 8
  %29 = load i8, ptr %28, align 8, !tbaa !130, !range !135, !noundef !136
  %30 = trunc nuw i8 %29 to i1
  br i1 %30, label %32, label %31

31:                                               ; preds = %27
  tail call void @_ZN5folly7futures6detail8CoreBase9detachOneEv(ptr noundef nonnull align 16 dereferenceable(136) %26) #23
  %.pre.i.i.i = load ptr, ptr %25, align 8, !tbaa !125
  br label %32

32:                                               ; preds = %31, %27
  %33 = phi ptr [ %.pre.i.i.i, %31 ], [ %26, %27 ]
  invoke void @_ZN5folly7futures6detail32coreDetachPromiseMaybeWithResultINS_4UnitEEEvRNS1_4CoreIT_EE(ptr noundef nonnull align 16 dereferenceable(160) %33)
          to label %_ZN5folly7futures12_GLOBAL__N_112FutureWaiterISt10shared_ptrINS_6fibers5BatonEEED2Ev.exit unwind label %34

34:                                               ; preds = %32
  %35 = landingpad { ptr, i32 }
          catch ptr null
  %36 = extractvalue { ptr, i32 } %35, 0
  tail call void @__clang_call_terminate(ptr %36) #33
  unreachable

_ZN5folly7futures12_GLOBAL__N_112FutureWaiterISt10shared_ptrINS_6fibers5BatonEEED2Ev.exit: ; preds = %32, %_ZNSt12__shared_ptrIN5folly6fibers5BatonELN9__gnu_cxx12_Lock_policyE2EED2Ev.exit.i
  tail call void @_ZdlPvm(ptr noundef nonnull %0, i64 noundef 40) #35
  ret void
}